target datalayout = "e-m:e-p270:32:32-p271:32:32-p272:64:64-i64:64-i128:128-f80:128-n8:16:32:64-S128"
target triple = "x86_64-pc-linux-gnu"

%struct.buflist = type { [1048576 x i8], i32, ptr }

@.str = private unnamed_addr constant [3 x i8] c"rb\00", align 1
@.str.6 = private unnamed_addr constant [63 x i8] c"Io_MvLoadFileBz2(): The file is unavailable (absent or open).\0A\00", align 1
@.str.7 = private unnamed_addr constant [60 x i8] c"Io_MvLoadFileBz2(): BZ2_bzReadOpen() failed with error %d.\0A\00", align 1
@.str.8 = private unnamed_addr constant [40 x i8] c"Io_MvLoadFileBz2(): The file is empty.\0A\00", align 1
@.str.9 = private unnamed_addr constant [57 x i8] c"Io_MvLoadFileBz2(): Unable to read the compressed BLIF.\0A\00", align 1
@.str.10 = private unnamed_addr constant [7 x i8] c"\0A.end\0A\00", align 1

; Function Attrs: nounwind uwtable
define ptr @Io_MvLoadFileBz2(ptr noundef %0, ptr noundef %1) #0 {
  %3 = alloca ptr, align 8
  %4 = alloca ptr, align 8
  %5 = alloca ptr, align 8
  %6 = alloca ptr, align 8
  %7 = alloca i64, align 8
  %8 = alloca ptr, align 8
  %9 = alloca ptr, align 8
  %10 = alloca i32, align 4
  %11 = alloca i32, align 4
  %12 = alloca ptr, align 8
  %13 = alloca ptr, align 8
  %14 = alloca ptr, align 8
  %15 = alloca i32, align 4
  %16 = alloca ptr, align 8
  %17 = alloca i32, align 4
  store ptr %0, ptr %4, align 8, !tbaa !3
  store ptr %1, ptr %5, align 8, !tbaa !126
  call void @llvm.lifetime.start.p0(i64 8, ptr %6) #12
  call void @llvm.lifetime.start.p0(i64 8, ptr %7) #12
  store i64 0, ptr %7, align 8, !tbaa !55
  call void @llvm.lifetime.start.p0(i64 8, ptr %8) #12
  call void @llvm.lifetime.start.p0(i64 8, ptr %9) #12
  call void @llvm.lifetime.start.p0(i64 4, ptr %10) #12
  call void @llvm.lifetime.start.p0(i64 4, ptr %11) #12
  call void @llvm.lifetime.start.p0(i64 8, ptr %12) #12
  call void @llvm.lifetime.start.p0(i64 8, ptr %13) #12
  store ptr null, ptr %13, align 8, !tbaa !128
  call void @llvm.lifetime.start.p0(i64 8, ptr %14) #12
  store ptr null, ptr %14, align 8, !tbaa !128
  %18 = load ptr, ptr %4, align 8, !tbaa !3
  %19 = call noalias ptr @fopen(ptr noundef %18, ptr noundef @.str)
  store ptr %19, ptr %6, align 8, !tbaa !12
  %20 = load ptr, ptr %6, align 8, !tbaa !12
  %21 = icmp eq ptr %20, null
  br i1 %21, label %22, label %23

22:                                               ; preds = %2
  call void (i32, ptr, ...) @Abc_Print(i32 noundef -1, ptr noundef @.str.6)
  store ptr null, ptr %3, align 8
  store i32 1, ptr %15, align 4
  br label %131

23:                                               ; preds = %2
  %24 = load ptr, ptr %6, align 8, !tbaa !12
  %25 = call ptr @BZ2_bzReadOpen(ptr noundef %10, ptr noundef %24, i32 noundef 0, i32 noundef 0, ptr noundef null, i32 noundef 0)
  store ptr %25, ptr %9, align 8, !tbaa !120
  %26 = load i32, ptr %10, align 4, !tbaa !8
  %27 = icmp ne i32 %26, 0
  br i1 %27, label %28, label %30

28:                                               ; preds = %23
  %29 = load i32, ptr %10, align 4, !tbaa !8
  call void (i32, ptr, ...) @Abc_Print(i32 noundef -1, ptr noundef @.str.7, i32 noundef %29)
  store ptr null, ptr %3, align 8
  store i32 1, ptr %15, align 4
  br label %131

30:                                               ; preds = %23
  br label %31

31:                                               ; preds = %53, %30
  %32 = load ptr, ptr %13, align 8, !tbaa !128
  %33 = icmp ne ptr %32, null
  br i1 %33, label %36, label %34

34:                                               ; preds = %31
  %35 = call noalias ptr @malloc(i64 noundef 1048592) #14
  store ptr %35, ptr %13, align 8, !tbaa !128
  store ptr %35, ptr %14, align 8, !tbaa !128
  br label %40

36:                                               ; preds = %31
  %37 = call noalias ptr @malloc(i64 noundef 1048592) #14
  %38 = load ptr, ptr %14, align 8, !tbaa !128
  %39 = getelementptr inbounds nuw %struct.buflist, ptr %38, i32 0, i32 2
  store ptr %37, ptr %39, align 8, !tbaa !130
  store ptr %37, ptr %14, align 8, !tbaa !128
  br label %40

40:                                               ; preds = %36, %34
  %41 = load ptr, ptr %9, align 8, !tbaa !120
  %42 = load ptr, ptr %14, align 8, !tbaa !128
  %43 = getelementptr inbounds nuw %struct.buflist, ptr %42, i32 0, i32 0
  %44 = getelementptr inbounds [1048576 x i8], ptr %43, i64 0, i64 0
  %45 = call i32 @BZ2_bzRead(ptr noundef %10, ptr noundef %41, ptr noundef %44, i32 noundef 1048576)
  %46 = load ptr, ptr %14, align 8, !tbaa !128
  %47 = getelementptr inbounds nuw %struct.buflist, ptr %46, i32 0, i32 1
  store i32 %45, ptr %47, align 8, !tbaa !132
  %48 = sext i32 %45 to i64
  %49 = load i64, ptr %7, align 8, !tbaa !55
  %50 = add nsw i64 %49, %48
  store i64 %50, ptr %7, align 8, !tbaa !55
  %51 = load ptr, ptr %14, align 8, !tbaa !128
  %52 = getelementptr inbounds nuw %struct.buflist, ptr %51, i32 0, i32 2
  store ptr null, ptr %52, align 8, !tbaa !130
  br label %53

53:                                               ; preds = %40
  %54 = load i32, ptr %10, align 4, !tbaa !8
  %55 = icmp eq i32 %54, 0
  br i1 %55, label %31, label %56, !llvm.loop !133

56:                                               ; preds = %53
  %57 = load i32, ptr %10, align 4, !tbaa !8
  %58 = icmp eq i32 %57, 4
  br i1 %58, label %59, label %96

59:                                               ; preds = %56
  call void @llvm.lifetime.start.p0(i64 8, ptr %16) #12
  call void @llvm.lifetime.start.p0(i64 4, ptr %17) #12
  store i32 0, ptr %17, align 4, !tbaa !8
  %60 = load ptr, ptr %9, align 8, !tbaa !120
  call void @BZ2_bzReadClose(ptr noundef %10, ptr noundef %60)
  %61 = load i64, ptr %7, align 8, !tbaa !55
  %62 = add nsw i64 %61, 10
  %63 = mul i64 1, %62
  %64 = call noalias ptr @malloc(i64 noundef %63) #14
  store ptr %64, ptr %8, align 8, !tbaa !3
  store ptr %64, ptr %16, align 8, !tbaa !3
  %65 = load ptr, ptr %13, align 8, !tbaa !128
  store ptr %65, ptr %14, align 8, !tbaa !128
  br label %66

66:                                               ; preds = %92, %59
  %67 = load ptr, ptr %16, align 8, !tbaa !3
  %68 = load i32, ptr %17, align 4, !tbaa !8
  %69 = sext i32 %68 to i64
  %70 = getelementptr inbounds i8, ptr %67, i64 %69
  %71 = load ptr, ptr %14, align 8, !tbaa !128
  %72 = getelementptr inbounds nuw %struct.buflist, ptr %71, i32 0, i32 0
  %73 = getelementptr inbounds [1048576 x i8], ptr %72, i64 0, i64 0
  %74 = load ptr, ptr %14, align 8, !tbaa !128
  %75 = getelementptr inbounds nuw %struct.buflist, ptr %74, i32 0, i32 1
  %76 = load i32, ptr %75, align 8, !tbaa !132
  %77 = sext i32 %76 to i64
  call void @llvm.memcpy.p0.p0.i64(ptr align 1 %70, ptr align 8 %73, i64 %77, i1 false)
  %78 = load ptr, ptr %14, align 8, !tbaa !128
  %79 = getelementptr inbounds nuw %struct.buflist, ptr %78, i32 0, i32 1
  %80 = load i32, ptr %79, align 8, !tbaa !132
  %81 = load i32, ptr %17, align 4, !tbaa !8
  %82 = add nsw i32 %81, %80
  store i32 %82, ptr %17, align 4, !tbaa !8
  %83 = load ptr, ptr %14, align 8, !tbaa !128
  %84 = getelementptr inbounds nuw %struct.buflist, ptr %83, i32 0, i32 2
  %85 = load ptr, ptr %84, align 8, !tbaa !130
  store ptr %85, ptr %12, align 8, !tbaa !128
  %86 = load ptr, ptr %14, align 8, !tbaa !128
  %87 = icmp ne ptr %86, null
  br i1 %87, label %88, label %90

88:                                               ; preds = %66
  %89 = load ptr, ptr %14, align 8, !tbaa !128
  call void @free(ptr noundef %89) #12
  store ptr null, ptr %14, align 8, !tbaa !128
  br label %91

90:                                               ; preds = %66
  br label %91

91:                                               ; preds = %90, %88
  br label %92

92:                                               ; preds = %91
  %93 = load ptr, ptr %12, align 8, !tbaa !128
  store ptr %93, ptr %14, align 8, !tbaa !128
  %94 = icmp ne ptr %93, null
  br i1 %94, label %66, label %95, !llvm.loop !134

95:                                               ; preds = %92
  call void @llvm.lifetime.end.p0(i64 4, ptr %17) #12
  call void @llvm.lifetime.end.p0(i64 8, ptr %16) #12
  br label %121

96:                                               ; preds = %56
  %97 = load i32, ptr %10, align 4, !tbaa !8
  %98 = icmp eq i32 %97, -5
  br i1 %98, label %99, label %119

99:                                               ; preds = %96
  %100 = load ptr, ptr %9, align 8, !tbaa !120
  call void @BZ2_bzReadClose(ptr noundef %10, ptr noundef %100)
  %101 = load ptr, ptr %6, align 8, !tbaa !12
  %102 = call i32 @fseek(ptr noundef %101, i64 noundef 0, i32 noundef 2)
  %103 = load ptr, ptr %6, align 8, !tbaa !12
  %104 = call i64 @ftell(ptr noundef %103)
  store i64 %104, ptr %7, align 8, !tbaa !55
  %105 = load i64, ptr %7, align 8, !tbaa !55
  %106 = icmp eq i64 %105, 0
  br i1 %106, label %107, label %108

107:                                              ; preds = %99
  call void (i32, ptr, ...) @Abc_Print(i32 noundef -1, ptr noundef @.str.8)
  store ptr null, ptr %3, align 8
  store i32 1, ptr %15, align 4
  br label %131

108:                                              ; preds = %99
  %109 = load i64, ptr %7, align 8, !tbaa !55
  %110 = add nsw i64 %109, 10
  %111 = mul i64 1, %110
  %112 = call noalias ptr @malloc(i64 noundef %111) #14
  store ptr %112, ptr %8, align 8, !tbaa !3
  %113 = load ptr, ptr %6, align 8, !tbaa !12
  call void @rewind(ptr noundef %113)
  %114 = load ptr, ptr %8, align 8, !tbaa !3
  %115 = load i64, ptr %7, align 8, !tbaa !55
  %116 = load ptr, ptr %6, align 8, !tbaa !12
  %117 = call i64 @fread(ptr noundef %114, i64 noundef %115, i64 noundef 1, ptr noundef %116)
  %118 = trunc i64 %117 to i32
  store i32 %118, ptr %11, align 4, !tbaa !8
  br label %120

119:                                              ; preds = %96
  call void (i32, ptr, ...) @Abc_Print(i32 noundef -1, ptr noundef @.str.9)
  store ptr null, ptr %3, align 8
  store i32 1, ptr %15, align 4
  br label %131

120:                                              ; preds = %108
  br label %121

121:                                              ; preds = %120, %95
  %122 = load ptr, ptr %6, align 8, !tbaa !12
  %123 = call i32 @fclose(ptr noundef %122)
  %124 = load ptr, ptr %8, align 8, !tbaa !3
  %125 = load i64, ptr %7, align 8, !tbaa !55
  %126 = getelementptr inbounds i8, ptr %124, i64 %125
  %127 = call ptr @strcpy(ptr noundef %126, ptr noundef @.str.10) #12
  %128 = load i64, ptr %7, align 8, !tbaa !55
  %129 = load ptr, ptr %5, align 8, !tbaa !126
  store i64 %128, ptr %129, align 8, !tbaa !55
  %130 = load ptr, ptr %8, align 8, !tbaa !3
  store ptr %130, ptr %3, align 8
  store i32 1, ptr %15, align 4
  br label %131

131:                                              ; preds = %121, %119, %107, %28, %22
  call void @llvm.lifetime.end.p0(i64 8, ptr %14) #12
  call void @llvm.lifetime.end.p0(i64 8, ptr %13) #12
  call void @llvm.lifetime.end.p0(i64 8, ptr %12) #12
  call void @llvm.lifetime.end.p0(i64 4, ptr %11) #12
  call void @llvm.lifetime.end.p0(i64 4, ptr %10) #12
  call void @llvm.lifetime.end.p0(i64 8, ptr %9) #12
  call void @llvm.lifetime.end.p0(i64 8, ptr %8) #12
  call void @llvm.lifetime.end.p0(i64 8, ptr %7) #12
  call void @llvm.lifetime.end.p0(i64 8, ptr %6) #12
  %132 = load ptr, ptr %3, align 8
  ret ptr %132
}