; Function Attrs: nounwind uwtable
define noalias noundef ptr @Io_MvLoadFileBz2(ptr noundef readonly captures(none) %0, ptr noundef writeonly captures(none) %1) local_unnamed_addr #0 {
  %3 = alloca i32, align 4
  call void @llvm.lifetime.start.p0(i64 4, ptr nonnull %3) #21
  %4 = tail call noalias ptr @fopen(ptr noundef %0, ptr noundef nonnull @.str)
  %5 = icmp eq ptr %4, null
  br i1 %5, label %6, label %7

6:                                                ; preds = %2
  tail call void (i32, ptr, ...) @Abc_Print(i32 poison, ptr noundef nonnull @.str.6)
  br label %46

7:                                                ; preds = %2
  %8 = call ptr @BZ2_bzReadOpen(ptr noundef nonnull %3, ptr noundef nonnull %4, i32 noundef 0, i32 noundef 0, ptr noundef null, i32 noundef 0) #21
  %9 = load i32, ptr %3, align 4, !tbaa !123
  %.not = icmp eq i32 %9, 0
  br i1 %.not, label %.preheader, label %10

10:                                               ; preds = %7
  call void (i32, ptr, ...) @Abc_Print(i32 poison, ptr noundef nonnull @.str.7, i32 noundef %9)
  br label %46

.preheader:                                       ; preds = %7, %14
  %.042 = phi i64 [ %18, %14 ], [ 0, %7 ]
  %.040 = phi ptr [ %.141, %14 ], [ null, %7 ]
  %.039 = phi ptr [ %11, %14 ], [ null, %7 ]
  %.not50 = icmp eq ptr %.040, null
  %11 = call noalias dereferenceable_or_null(1048592) ptr @malloc(i64 noundef 1048592) #20
  br i1 %.not50, label %14, label %12

12:                                               ; preds = %.preheader
  %13 = getelementptr inbounds nuw i8, ptr %.039, i64 1048584
  store ptr %11, ptr %13, align 8, !tbaa !172
  br label %14

14:                                               ; preds = %.preheader, %12
  %.141 = phi ptr [ %.040, %12 ], [ %11, %.preheader ]
  %15 = call i32 @BZ2_bzRead(ptr noundef nonnull %3, ptr noundef %8, ptr noundef %11, i32 noundef 1048576) #21
  %16 = getelementptr inbounds nuw i8, ptr %11, i64 1048576
  store i32 %15, ptr %16, align 8, !tbaa !175
  %17 = sext i32 %15 to i64
  %18 = add nsw i64 %.042, %17
  %19 = getelementptr inbounds nuw i8, ptr %11, i64 1048584
  store ptr null, ptr %19, align 8, !tbaa !172
  %20 = load i32, ptr %3, align 4, !tbaa !123
  switch i32 %20, label %43 [
    i32 0, label %.preheader
    i32 4, label %21
    i32 -5, label %34
  ]

21:                                               ; preds = %14
  call void @BZ2_bzReadClose(ptr noundef nonnull %3, ptr noundef %8) #21
  %22 = add nsw i64 %18, 10
  %23 = call noalias ptr @malloc(i64 noundef %22) #20
  br label %24

24:                                               ; preds = %24, %21
  %.2 = phi ptr [ %.141, %21 ], [ %33, %24 ]
  %.0 = phi i32 [ 0, %21 ], [ %31, %24 ]
  %25 = sext i32 %.0 to i64
  %26 = getelementptr inbounds i8, ptr %23, i64 %25
  %27 = getelementptr inbounds nuw i8, ptr %.2, i64 1048576
  %28 = load i32, ptr %27, align 8, !tbaa !175
  %29 = sext i32 %28 to i64
  call void @llvm.memcpy.p0.p0.i64(ptr align 1 %26, ptr align 8 %.2, i64 %29, i1 false)
  %30 = load i32, ptr %27, align 8, !tbaa !175
  %31 = add nsw i32 %30, %.0
  %32 = getelementptr inbounds nuw i8, ptr %.2, i64 1048584
  %33 = load ptr, ptr %32, align 8, !tbaa !172
  call void @free(ptr noundef %.2) #21
  %.not52 = icmp eq ptr %33, null
  br i1 %.not52, label %.loopexit, label %24, !llvm.loop !176

34:                                               ; preds = %14
  call void @BZ2_bzReadClose(ptr noundef nonnull %3, ptr noundef %8) #21
  %35 = call i32 @fseek(ptr noundef nonnull %4, i64 noundef 0, i32 noundef 2)
  %36 = call i64 @ftell(ptr noundef nonnull %4)
  %37 = icmp eq i64 %36, 0
  br i1 %37, label %38, label %39

38:                                               ; preds = %34
  call void (i32, ptr, ...) @Abc_Print(i32 poison, ptr noundef nonnull @.str.8)
  br label %46

39:                                               ; preds = %34
  %40 = add nsw i64 %36, 10
  %41 = call noalias ptr @malloc(i64 noundef %40) #20
  call void @rewind(ptr noundef nonnull %4)
  %42 = call i64 @fread(ptr noundef %41, i64 noundef %36, i64 noundef 1, ptr noundef nonnull %4)
  br label %.loopexit

43:                                               ; preds = %14
  call void (i32, ptr, ...) @Abc_Print(i32 poison, ptr noundef nonnull @.str.9)
  br label %46

.loopexit:                                        ; preds = %24, %39
  %.044 = phi ptr [ %41, %39 ], [ %23, %24 ]
  %.143 = phi i64 [ %36, %39 ], [ %18, %24 ]
  %44 = call i32 @fclose(ptr noundef nonnull %4)
  %45 = getelementptr inbounds i8, ptr %.044, i64 %.143
  call void @llvm.memcpy.p0.p0.i64(ptr noundef nonnull align 1 dereferenceable(7) %45, ptr noundef nonnull align 1 dereferenceable(7) @.str.10, i64 7, i1 false) #21
  store i64 %.143, ptr %1, align 8, !tbaa !177
  br label %46

46:                                               ; preds = %.loopexit, %43, %38, %10, %6
  %.038 = phi ptr [ null, %6 ], [ null, %10 ], [ %.044, %.loopexit ], [ null, %38 ], [ null, %43 ]
  call void @llvm.lifetime.end.p0(i64 4, ptr nonnull %3) #21
  ret ptr %.038
}